
GccApplication1.elf:     file format elf32-avr

Sections:
Idx Name          Size      VMA       LMA       File off  Algn
  0 .data         00000000  00800100  00800100  000001f4  2**0
                  CONTENTS, ALLOC, LOAD, DATA
  1 .text         000001a0  00000000  00000000  00000054  2**1
                  CONTENTS, ALLOC, LOAD, READONLY, CODE
  2 .comment      00000030  00000000  00000000  000001f4  2**0
                  CONTENTS, READONLY
  3 .note.gnu.avr.deviceinfo 00000040  00000000  00000000  00000224  2**2
                  CONTENTS, READONLY
  4 .debug_aranges 00000030  00000000  00000000  00000264  2**0
                  CONTENTS, READONLY, DEBUGGING
  5 .debug_info   00000b9f  00000000  00000000  00000294  2**0
                  CONTENTS, READONLY, DEBUGGING
  6 .debug_abbrev 00000870  00000000  00000000  00000e33  2**0
                  CONTENTS, READONLY, DEBUGGING
  7 .debug_line   000003a6  00000000  00000000  000016a3  2**0
                  CONTENTS, READONLY, DEBUGGING
  8 .debug_frame  00000044  00000000  00000000  00001a4c  2**2
                  CONTENTS, READONLY, DEBUGGING
  9 .debug_str    00000423  00000000  00000000  00001a90  2**0
                  CONTENTS, READONLY, DEBUGGING
 10 .debug_loc    00000369  00000000  00000000  00001eb3  2**0
                  CONTENTS, READONLY, DEBUGGING
 11 .debug_ranges 00000020  00000000  00000000  0000221c  2**0
                  CONTENTS, READONLY, DEBUGGING

Disassembly of section .text:

00000000 <__vectors>:
   0:	45 c0       	rjmp	.+138    	; 0x8c <__ctors_end>
   2:	00 00       	nop
   4:	4b c0       	rjmp	.+150    	; 0x9c <__bad_interrupt>
   6:	00 00       	nop
   8:	49 c0       	rjmp	.+146    	; 0x9c <__bad_interrupt>
   a:	00 00       	nop
   c:	47 c0       	rjmp	.+142    	; 0x9c <__bad_interrupt>
   e:	00 00       	nop
  10:	45 c0       	rjmp	.+138    	; 0x9c <__bad_interrupt>
  12:	00 00       	nop
  14:	43 c0       	rjmp	.+134    	; 0x9c <__bad_interrupt>
  16:	00 00       	nop
  18:	41 c0       	rjmp	.+130    	; 0x9c <__bad_interrupt>
  1a:	00 00       	nop
  1c:	3f c0       	rjmp	.+126    	; 0x9c <__bad_interrupt>
  1e:	00 00       	nop
  20:	3d c0       	rjmp	.+122    	; 0x9c <__bad_interrupt>
  22:	00 00       	nop
  24:	3b c0       	rjmp	.+118    	; 0x9c <__bad_interrupt>
  26:	00 00       	nop
  28:	39 c0       	rjmp	.+114    	; 0x9c <__bad_interrupt>
  2a:	00 00       	nop
  2c:	37 c0       	rjmp	.+110    	; 0x9c <__bad_interrupt>
  2e:	00 00       	nop
  30:	35 c0       	rjmp	.+106    	; 0x9c <__bad_interrupt>
  32:	00 00       	nop
  34:	33 c0       	rjmp	.+102    	; 0x9c <__bad_interrupt>
  36:	00 00       	nop
  38:	31 c0       	rjmp	.+98     	; 0x9c <__bad_interrupt>
  3a:	00 00       	nop
  3c:	2f c0       	rjmp	.+94     	; 0x9c <__bad_interrupt>
  3e:	00 00       	nop
  40:	2d c0       	rjmp	.+90     	; 0x9c <__bad_interrupt>
  42:	00 00       	nop
  44:	2b c0       	rjmp	.+86     	; 0x9c <__bad_interrupt>
  46:	00 00       	nop
  48:	29 c0       	rjmp	.+82     	; 0x9c <__bad_interrupt>
  4a:	00 00       	nop
  4c:	27 c0       	rjmp	.+78     	; 0x9c <__bad_interrupt>
  4e:	00 00       	nop
  50:	25 c0       	rjmp	.+74     	; 0x9c <__bad_interrupt>
  52:	00 00       	nop
  54:	23 c0       	rjmp	.+70     	; 0x9c <__bad_interrupt>
  56:	00 00       	nop
  58:	21 c0       	rjmp	.+66     	; 0x9c <__bad_interrupt>
  5a:	00 00       	nop
  5c:	1f c0       	rjmp	.+62     	; 0x9c <__bad_interrupt>
  5e:	00 00       	nop
  60:	1d c0       	rjmp	.+58     	; 0x9c <__bad_interrupt>
  62:	00 00       	nop
  64:	1b c0       	rjmp	.+54     	; 0x9c <__bad_interrupt>
  66:	00 00       	nop
  68:	19 c0       	rjmp	.+50     	; 0x9c <__bad_interrupt>
  6a:	00 00       	nop
  6c:	17 c0       	rjmp	.+46     	; 0x9c <__bad_interrupt>
  6e:	00 00       	nop
  70:	15 c0       	rjmp	.+42     	; 0x9c <__bad_interrupt>
  72:	00 00       	nop
  74:	13 c0       	rjmp	.+38     	; 0x9c <__bad_interrupt>
  76:	00 00       	nop
  78:	11 c0       	rjmp	.+34     	; 0x9c <__bad_interrupt>
  7a:	00 00       	nop
  7c:	0f c0       	rjmp	.+30     	; 0x9c <__bad_interrupt>
  7e:	00 00       	nop
  80:	0d c0       	rjmp	.+26     	; 0x9c <__bad_interrupt>
  82:	00 00       	nop
  84:	0b c0       	rjmp	.+22     	; 0x9c <__bad_interrupt>
  86:	00 00       	nop
  88:	09 c0       	rjmp	.+18     	; 0x9c <__bad_interrupt>
	...

0000008c <__ctors_end>:
  8c:	11 24       	eor	r1, r1
  8e:	1f be       	out	0x3f, r1	; 63
  90:	cf ef       	ldi	r28, 0xFF	; 255
  92:	d0 e1       	ldi	r29, 0x10	; 16
  94:	de bf       	out	0x3e, r29	; 62
  96:	cd bf       	out	0x3d, r28	; 61
  98:	7d d0       	rcall	.+250    	; 0x194 <main>
  9a:	80 c0       	rjmp	.+256    	; 0x19c <_exit>

0000009c <__bad_interrupt>:
  9c:	b1 cf       	rjmp	.-158    	; 0x0 <__vectors>

0000009e <CPU_setup>:
#include <avr/io.h>
#include <util/delay.h>


void CPU_setup(){
	DDRB = 0XFF;
  9e:	8f ef       	ldi	r24, 0xFF	; 255
  a0:	87 bb       	out	0x17, r24	; 23
	DDRE = 0XFF;
  a2:	82 b9       	out	0x02, r24	; 2
  a4:	08 95       	ret

000000a6 <Circle1_led>:


void Circle1_led(char o){
	int speed = 200;
	
	if(o == 0){
  a6:	81 11       	cpse	r24, r1
  a8:	03 c0       	rjmp	.+6      	; 0xb0 <Circle1_led+0xa>
		PORTB = 0x00;
  aa:	18 ba       	out	0x18, r1	; 24
		PORTE = 0X00;
  ac:	13 b8       	out	0x03, r1	; 3
  ae:	08 95       	ret
	}else{
		PORTB = 0X01;
  b0:	91 e0       	ldi	r25, 0x01	; 1
  b2:	98 bb       	out	0x18, r25	; 24
	#else
		//round up by default
		__ticks_dc = (uint32_t)(ceil(fabs(__tmp)));
	#endif

	__builtin_avr_delay_cycles(__ticks_dc);
  b4:	26 e6       	ldi	r18, 0x66	; 102
  b6:	36 ee       	ldi	r19, 0xE6	; 230
  b8:	40 e0       	ldi	r20, 0x00	; 0
  ba:	21 50       	subi	r18, 0x01	; 1
  bc:	30 40       	sbci	r19, 0x00	; 0
  be:	40 40       	sbci	r20, 0x00	; 0
  c0:	e1 f7       	brne	.-8      	; 0xba <Circle1_led+0x14>
		_delay_ms(speed);
		PORTB = 0X02;
  c2:	82 e0       	ldi	r24, 0x02	; 2
  c4:	88 bb       	out	0x18, r24	; 24
  c6:	56 e6       	ldi	r21, 0x66	; 102
  c8:	86 ee       	ldi	r24, 0xE6	; 230
  ca:	20 e0       	ldi	r18, 0x00	; 0
  cc:	51 50       	subi	r21, 0x01	; 1
  ce:	80 40       	sbci	r24, 0x00	; 0
  d0:	20 40       	sbci	r18, 0x00	; 0
  d2:	e1 f7       	brne	.-8      	; 0xcc <Circle1_led+0x26>
		_delay_ms(speed);
		PORTB = 0X04;
  d4:	84 e0       	ldi	r24, 0x04	; 4
  d6:	88 bb       	out	0x18, r24	; 24
  d8:	36 e6       	ldi	r19, 0x66	; 102
  da:	46 ee       	ldi	r20, 0xE6	; 230
  dc:	50 e0       	ldi	r21, 0x00	; 0
  de:	31 50       	subi	r19, 0x01	; 1
  e0:	40 40       	sbci	r20, 0x00	; 0
  e2:	50 40       	sbci	r21, 0x00	; 0
  e4:	e1 f7       	brne	.-8      	; 0xde <Circle1_led+0x38>
		_delay_ms(speed);
		PORTB = 0X08;
  e6:	28 e0       	ldi	r18, 0x08	; 8
  e8:	28 bb       	out	0x18, r18	; 24
  ea:	86 e6       	ldi	r24, 0x66	; 102
  ec:	36 ee       	ldi	r19, 0xE6	; 230
  ee:	40 e0       	ldi	r20, 0x00	; 0
  f0:	81 50       	subi	r24, 0x01	; 1
  f2:	30 40       	sbci	r19, 0x00	; 0
  f4:	40 40       	sbci	r20, 0x00	; 0
  f6:	e1 f7       	brne	.-8      	; 0xf0 <Circle1_led+0x4a>
		_delay_ms(speed);
		PORTB = 0X80;
  f8:	80 e8       	ldi	r24, 0x80	; 128
  fa:	88 bb       	out	0x18, r24	; 24
  fc:	56 e6       	ldi	r21, 0x66	; 102
  fe:	36 ee       	ldi	r19, 0xE6	; 230
 100:	40 e0       	ldi	r20, 0x00	; 0
 102:	51 50       	subi	r21, 0x01	; 1
 104:	30 40       	sbci	r19, 0x00	; 0
 106:	40 40       	sbci	r20, 0x00	; 0
 108:	e1 f7       	brne	.-8      	; 0x102 <Circle1_led+0x5c>
		_delay_ms(speed);
		PORTB = 0X00;
 10a:	18 ba       	out	0x18, r1	; 24
		
		PORTE = 0X08;
 10c:	23 b9       	out	0x03, r18	; 3
 10e:	56 e6       	ldi	r21, 0x66	; 102
 110:	26 ee       	ldi	r18, 0xE6	; 230
 112:	30 e0       	ldi	r19, 0x00	; 0
 114:	51 50       	subi	r21, 0x01	; 1
 116:	20 40       	sbci	r18, 0x00	; 0
 118:	30 40       	sbci	r19, 0x00	; 0
 11a:	e1 f7       	brne	.-8      	; 0x114 <Circle1_led+0x6e>
		_delay_ms(speed);
		PORTE = 0X80;
 11c:	83 b9       	out	0x03, r24	; 3
 11e:	46 e6       	ldi	r20, 0x66	; 102
 120:	56 ee       	ldi	r21, 0xE6	; 230
 122:	80 e0       	ldi	r24, 0x00	; 0
 124:	41 50       	subi	r20, 0x01	; 1
 126:	50 40       	sbci	r21, 0x00	; 0
 128:	80 40       	sbci	r24, 0x00	; 0
 12a:	e1 f7       	brne	.-8      	; 0x124 <Circle1_led+0x7e>
		_delay_ms(speed);
		PORTE = 0X40;
 12c:	80 e4       	ldi	r24, 0x40	; 64
 12e:	83 b9       	out	0x03, r24	; 3
 130:	26 e6       	ldi	r18, 0x66	; 102
 132:	36 ee       	ldi	r19, 0xE6	; 230
 134:	40 e0       	ldi	r20, 0x00	; 0
 136:	21 50       	subi	r18, 0x01	; 1
 138:	30 40       	sbci	r19, 0x00	; 0
 13a:	40 40       	sbci	r20, 0x00	; 0
 13c:	e1 f7       	brne	.-8      	; 0x136 <Circle1_led+0x90>
		_delay_ms(speed);
		PORTE = 0X20;
 13e:	80 e2       	ldi	r24, 0x20	; 32
 140:	83 b9       	out	0x03, r24	; 3
 142:	56 e6       	ldi	r21, 0x66	; 102
 144:	86 ee       	ldi	r24, 0xE6	; 230
 146:	20 e0       	ldi	r18, 0x00	; 0
 148:	51 50       	subi	r21, 0x01	; 1
 14a:	80 40       	sbci	r24, 0x00	; 0
 14c:	20 40       	sbci	r18, 0x00	; 0
 14e:	e1 f7       	brne	.-8      	; 0x148 <Circle1_led+0xa2>
		_delay_ms(speed);
		PORTE = 0X10;
 150:	80 e1       	ldi	r24, 0x10	; 16
 152:	83 b9       	out	0x03, r24	; 3
 154:	36 e6       	ldi	r19, 0x66	; 102
 156:	46 ee       	ldi	r20, 0xE6	; 230
 158:	50 e0       	ldi	r21, 0x00	; 0
 15a:	31 50       	subi	r19, 0x01	; 1
 15c:	40 40       	sbci	r20, 0x00	; 0
 15e:	50 40       	sbci	r21, 0x00	; 0
 160:	e1 f7       	brne	.-8      	; 0x15a <Circle1_led+0xb4>
		_delay_ms(speed);
		PORTE = 0X01;
 162:	93 b9       	out	0x03, r25	; 3
 164:	96 e6       	ldi	r25, 0x66	; 102
 166:	26 ee       	ldi	r18, 0xE6	; 230
 168:	30 e0       	ldi	r19, 0x00	; 0
 16a:	91 50       	subi	r25, 0x01	; 1
 16c:	20 40       	sbci	r18, 0x00	; 0
 16e:	30 40       	sbci	r19, 0x00	; 0
 170:	e1 f7       	brne	.-8      	; 0x16a <Circle1_led+0xc4>
		_delay_ms(speed);
		PORTE = 0X00;
 172:	13 b8       	out	0x03, r1	; 3
 174:	46 e6       	ldi	r20, 0x66	; 102
 176:	56 ee       	ldi	r21, 0xE6	; 230
 178:	90 e0       	ldi	r25, 0x00	; 0
 17a:	41 50       	subi	r20, 0x01	; 1
 17c:	50 40       	sbci	r21, 0x00	; 0
 17e:	90 40       	sbci	r25, 0x00	; 0
 180:	e1 f7       	brne	.-8      	; 0x17a <Circle1_led+0xd4>
		_delay_ms(speed);
		PORTB = 0X10;
 182:	88 bb       	out	0x18, r24	; 24
 184:	26 e6       	ldi	r18, 0x66	; 102
 186:	36 ee       	ldi	r19, 0xE6	; 230
 188:	40 e0       	ldi	r20, 0x00	; 0
 18a:	21 50       	subi	r18, 0x01	; 1
 18c:	30 40       	sbci	r19, 0x00	; 0
 18e:	40 40       	sbci	r20, 0x00	; 0
 190:	e1 f7       	brne	.-8      	; 0x18a <Circle1_led+0xe4>
 192:	08 95       	ret

00000194 <main>:
int main(void)
{
	//DDRB = 0Xff;
	// B 포트 1111 1111 -> 출력
	
	CPU_setup();
 194:	84 df       	rcall	.-248    	; 0x9e <CPU_setup>
			PORTB = 1<<k;
			_delay_ms(500);
		}
		*/
		
		Circle1_led(1);
 196:	81 e0       	ldi	r24, 0x01	; 1
 198:	86 df       	rcall	.-244    	; 0xa6 <Circle1_led>
 19a:	fd cf       	rjmp	.-6      	; 0x196 <main+0x2>

0000019c <_exit>:
 19c:	f8 94       	cli

0000019e <__stop_program>:
 19e:	ff cf       	rjmp	.-2      	; 0x19e <__stop_program>
